target datalayout = "e-m:e-p270:32:32-p271:32:32-p272:64:64-i64:64-i128:128-f80:128-n8:16:32:64-S128"
target triple = "x86_64-pc-linux-gnu"

%struct.FunctionCallInfoBaseData = type { ptr, ptr, ptr, i32, i8, i16, [0 x %struct.NullableDatum] }
%struct.NullableDatum = type { i64, i8 }

@.str.32 = private unnamed_addr constant [16 x i8] c" with time zone\00", align 1
@.str.33 = private unnamed_addr constant [19 x i8] c" without time zone\00", align 1
@.str.34 = private unnamed_addr constant [7 x i8] c"(%d)%s\00", align 1

; Function Attrs: inlinehint nounwind uwtable
define internal i64 @PointerGetDatum(ptr noundef %0) #4 {
  %2 = alloca ptr, align 8
  store ptr %0, ptr %2, align 8
  %3 = load ptr, ptr %2, align 8
  %4 = ptrtoint ptr %3 to i64
  ret i64 %4
}

; Function Attrs: inlinehint nounwind uwtable
define internal i64 @CStringGetDatum(ptr noundef %0) #4 {
  %2 = alloca ptr, align 8
  store ptr %0, ptr %2, align 8
  %3 = load ptr, ptr %2, align 8
  %4 = call i64 @PointerGetDatum(ptr noundef %3)
  ret i64 %4
}

; Function Attrs: nounwind uwtable
define internal ptr @anytime_typmodout(i1 noundef zeroext %0, i32 noundef %1) #0 {
  %3 = alloca ptr, align 8
  %4 = alloca i8, align 1
  %5 = alloca i32, align 4
  %6 = alloca ptr, align 8
  %7 = alloca i32, align 4
  %8 = zext i1 %0 to i8
  store i8 %8, ptr %4, align 1
  store i32 %1, ptr %5, align 4
  call void @llvm.lifetime.start.p0(i64 8, ptr %6) #9
  %9 = load i8, ptr %4, align 1, !range !4, !noundef !5
  %10 = trunc i8 %9 to i1
  %11 = select i1 %10, ptr @.str.32, ptr @.str.33
  store ptr %11, ptr %6, align 8
  %12 = load i32, ptr %5, align 4
  %13 = icmp sge i32 %12, 0
  br i1 %13, label %14, label %18

14:                                               ; preds = %2
  %15 = load i32, ptr %5, align 4
  %16 = load ptr, ptr %6, align 8
  %17 = call ptr (ptr, ...) @psprintf(ptr noundef @.str.34, i32 noundef %15, ptr noundef %16)
  store ptr %17, ptr %3, align 8
  store i32 1, ptr %7, align 4
  br label %21

18:                                               ; preds = %2
  %19 = load ptr, ptr %6, align 8
  %20 = call ptr @pstrdup(ptr noundef %19)
  store ptr %20, ptr %3, align 8
  store i32 1, ptr %7, align 4
  br label %21

21:                                               ; preds = %18, %14
  call void @llvm.lifetime.end.p0(i64 8, ptr %6) #9
  %22 = load ptr, ptr %3, align 8
  ret ptr %22
}

; Function Attrs: inlinehint nounwind uwtable
define internal i32 @DatumGetInt32(i64 noundef %0) #4 {
  %2 = alloca i64, align 8
  store i64 %0, ptr %2, align 8
  %3 = load i64, ptr %2, align 8
  %4 = trunc i64 %3 to i32
  ret i32 %4
}

; Function Attrs: nounwind uwtable
define dso_local i64 @timetypmodout(ptr noundef %0) #0 {
  %2 = alloca ptr, align 8
  %3 = alloca i32, align 4
  store ptr %0, ptr %2, align 8
  call void @llvm.lifetime.start.p0(i64 4, ptr %3) #9
  %4 = load ptr, ptr %2, align 8
  %5 = getelementptr inbounds nuw %struct.FunctionCallInfoBaseData, ptr %4, i32 0, i32 6
  %6 = getelementptr inbounds [0 x %struct.NullableDatum], ptr %5, i64 0, i64 0
  %7 = getelementptr inbounds nuw %struct.NullableDatum, ptr %6, i32 0, i32 0
  %8 = load i64, ptr %7, align 8
  %9 = call i32 @DatumGetInt32(i64 noundef %8)
  store i32 %9, ptr %3, align 4
  %10 = load i32, ptr %3, align 4
  %11 = call ptr @anytime_typmodout(i1 noundef zeroext false, i32 noundef %10)
  %12 = call i64 @CStringGetDatum(ptr noundef %11)
  call void @llvm.lifetime.end.p0(i64 4, ptr %3) #9
  ret i64 %12
}