; Function Attrs: nounwind uwtable
define dso_local i64 @timetypmodout(ptr noundef readonly captures(none) %0) local_unnamed_addr #0 {
  %2 = getelementptr inbounds nuw i8, ptr %0, i64 32
  %3 = load i64, ptr %2, align 8
  %4 = trunc i64 %3 to i32
  %5 = icmp sgt i32 %4, -1
  br i1 %5, label %6, label %8

6:                                                ; preds = %1
  %7 = tail call ptr (ptr, ...) @psprintf(ptr noundef nonnull @.str.34, i32 noundef %4, ptr noundef nonnull @.str.33) #16
  br label %anytime_typmodout.exit

8:                                                ; preds = %1
  %9 = tail call ptr @pstrdup(ptr noundef nonnull @.str.33) #16
  br label %anytime_typmodout.exit

anytime_typmodout.exit:                           ; preds = %6, %8
  %.0.i = phi ptr [ %7, %6 ], [ %9, %8 ]
  %10 = ptrtoint ptr %.0.i to i64
  ret i64 %10
}